target datalayout = "e-m:e-p270:32:32-p271:32:32-p272:64:64-i64:64-i128:128-f80:128-n8:16:32:64-S128"
target triple = "x86_64-pc-linux-gnu"

@hf_ua3g_segment_msg_num_remaining = internal global i32 0, align 4
@hf_ua3g_segment_msg_length = internal global i32 0, align 4
@hf_ua3g_segment_message_data = internal global i32 0, align 4
@hf_ua3g_segment_msg_segment = internal global i32 0, align 4

; Function Attrs: null_pointer_is_valid sspstrong uwtable
define internal void @decode_segment_msg(ptr noundef %0, ptr noundef %1, ptr noundef %2, i32 noundef %3, i32 noundef %4) #0 {
  %6 = alloca ptr, align 8
  %7 = alloca ptr, align 8
  %8 = alloca ptr, align 8
  %9 = alloca i32, align 4
  %10 = alloca i32, align 4
  %11 = alloca i8, align 1
  %12 = alloca i32, align 4
  store ptr %0, ptr %6, align 8
  store ptr %1, ptr %7, align 8
  store ptr %2, ptr %8, align 8
  store i32 %3, ptr %9, align 4
  store i32 %4, ptr %10, align 4
  call void @llvm.lifetime.start.p0(i64 1, ptr %11) #8
  %13 = load ptr, ptr %6, align 8
  %14 = icmp ne ptr %13, null
  br i1 %14, label %16, label %15

15:                                               ; preds = %5
  store i32 1, ptr %12, align 4
  br label %59

16:                                               ; preds = %5
  %17 = load ptr, ptr %7, align 8
  %18 = load i32, ptr %9, align 4
  %19 = call zeroext i8 @tvb_get_uint8(ptr noundef %17, i32 noundef %18)
  store i8 %19, ptr %11, align 1
  %20 = load ptr, ptr %6, align 8
  %21 = load i32, ptr @hf_ua3g_segment_msg_segment, align 4
  %22 = load ptr, ptr %7, align 8
  %23 = load i32, ptr %9, align 4
  %24 = call ptr @proto_tree_add_item(ptr noundef %20, i32 noundef %21, ptr noundef %22, i32 noundef %23, i32 noundef 1, i32 noundef 0)
  %25 = load ptr, ptr %6, align 8
  %26 = load i32, ptr @hf_ua3g_segment_msg_num_remaining, align 4
  %27 = load ptr, ptr %7, align 8
  %28 = load i32, ptr %9, align 4
  %29 = call ptr @proto_tree_add_item(ptr noundef %25, i32 noundef %26, ptr noundef %27, i32 noundef %28, i32 noundef 1, i32 noundef 0)
  %30 = load i32, ptr %9, align 4
  %31 = add i32 %30, 1
  store i32 %31, ptr %9, align 4
  %32 = load i32, ptr %10, align 4
  %33 = add i32 %32, -1
  store i32 %33, ptr %10, align 4
  %34 = load i8, ptr %11, align 1
  %35 = zext i8 %34 to i32
  %36 = and i32 %35, 128
  %37 = icmp ne i32 %36, 0
  br i1 %37, label %38, label %48

38:                                               ; preds = %16
  %39 = load ptr, ptr %6, align 8
  %40 = load i32, ptr @hf_ua3g_segment_msg_length, align 4
  %41 = load ptr, ptr %7, align 8
  %42 = load i32, ptr %9, align 4
  %43 = call ptr @proto_tree_add_item(ptr noundef %39, i32 noundef %40, ptr noundef %41, i32 noundef %42, i32 noundef 2, i32 noundef 0)
  %44 = load i32, ptr %9, align 4
  %45 = add i32 %44, 2
  store i32 %45, ptr %9, align 4
  %46 = load i32, ptr %10, align 4
  %47 = sub i32 %46, 2
  store i32 %47, ptr %10, align 4
  br label %48

48:                                               ; preds = %38, %16
  %49 = load i32, ptr %10, align 4
  %50 = icmp ugt i32 %49, 0
  br i1 %50, label %51, label %58

51:                                               ; preds = %48
  %52 = load ptr, ptr %6, align 8
  %53 = load i32, ptr @hf_ua3g_segment_message_data, align 4
  %54 = load ptr, ptr %7, align 8
  %55 = load i32, ptr %9, align 4
  %56 = load i32, ptr %10, align 4
  %57 = call ptr @proto_tree_add_item(ptr noundef %52, i32 noundef %53, ptr noundef %54, i32 noundef %55, i32 noundef %56, i32 noundef 0)
  br label %58

58:                                               ; preds = %51, %48
  store i32 0, ptr %12, align 4
  br label %59

59:                                               ; preds = %58, %15
  call void @llvm.lifetime.end.p0(i64 1, ptr %11) #8
  %60 = load i32, ptr %12, align 4
  switch i32 %60, label %62 [
    i32 0, label %61
    i32 1, label %61
  ]

61:                                               ; preds = %59, %59
  ret void

62:                                               ; preds = %59
  unreachable
}