; Function Attrs: null_pointer_is_valid sspstrong uwtable
define internal fastcc void @decode_segment_msg(ptr noundef %0, ptr noundef %1, i32 noundef range(i32 -1, 65535) %2) unnamed_addr #0 {
  %.not = icmp eq ptr %0, null
  br i1 %.not, label %19, label %4

4:                                                ; preds = %3
  %5 = tail call zeroext i8 @tvb_get_uint8(ptr noundef %1, i32 noundef 3)
  %6 = load i32, ptr @hf_ua3g_segment_msg_segment, align 4
  %7 = tail call ptr @proto_tree_add_item(ptr noundef nonnull %0, i32 noundef %6, ptr noundef %1, i32 noundef 3, i32 noundef 1, i32 noundef 0)
  %8 = load i32, ptr @hf_ua3g_segment_msg_num_remaining, align 4
  %9 = tail call ptr @proto_tree_add_item(ptr noundef nonnull %0, i32 noundef %8, ptr noundef %1, i32 noundef 3, i32 noundef 1, i32 noundef 0)
  %10 = add nsw i32 %2, -1
  %.not23 = icmp sgt i8 %5, -1
  br i1 %.not23, label %15, label %11

11:                                               ; preds = %4
  %12 = load i32, ptr @hf_ua3g_segment_msg_length, align 4
  %13 = tail call ptr @proto_tree_add_item(ptr noundef nonnull %0, i32 noundef %12, ptr noundef %1, i32 noundef 4, i32 noundef 2, i32 noundef 0)
  %14 = add nsw i32 %2, -3
  br label %15

15:                                               ; preds = %11, %4
  %.021 = phi i32 [ %14, %11 ], [ %10, %4 ]
  %.0 = phi i32 [ 6, %11 ], [ 4, %4 ]
  %.not24 = icmp eq i32 %.021, 0
  br i1 %.not24, label %19, label %16

16:                                               ; preds = %15
  %17 = load i32, ptr @hf_ua3g_segment_message_data, align 4
  %18 = tail call ptr @proto_tree_add_item(ptr noundef nonnull %0, i32 noundef %17, ptr noundef %1, i32 noundef %.0, i32 noundef %.021, i32 noundef 0)
  br label %19

19:                                               ; preds = %15, %16, %3
  ret void
}